target datalayout = "e-m:e-p270:32:32-p271:32:32-p272:64:64-i64:64-i128:128-f80:128-n8:16:32:64-S128"
target triple = "x86_64-pc-linux-gnu"

%"struct.clang::Rewriter::RewriteOptions" = type { i8, i8, i8 }
%"class.clang::SourceLocation" = type { i32 }
%"class.clang::FileID" = type { i32 }
%"class.clang::Rewriter" = type { ptr, ptr, %"class.std::map" }
%"class.std::map" = type { %"class.std::_Rb_tree" }
%"class.std::_Rb_tree" = type { %"struct.std::_Rb_tree<clang::FileID, std::pair<const clang::FileID, llvm::RewriteBuffer>, std::_Select1st<std::pair<const clang::FileID, llvm::RewriteBuffer>>, std::less<clang::FileID>>::_Rb_tree_impl" }
%"struct.std::_Rb_tree<clang::FileID, std::pair<const clang::FileID, llvm::RewriteBuffer>, std::_Select1st<std::pair<const clang::FileID, llvm::RewriteBuffer>>, std::less<clang::FileID>>::_Rb_tree_impl" = type { [8 x i8], %"struct.std::_Rb_tree_header" }
%"struct.std::_Rb_tree_header" = type { %"struct.std::_Rb_tree_node_base", i64 }
%"struct.std::_Rb_tree_node_base" = type { i32, ptr, ptr, ptr }
%"struct.std::pair.96" = type { %"class.clang::FileID", i32 }

; Function Attrs: mustprogress nounwind uwtable
define linkonce_odr hidden noundef zeroext i1 @_ZNK5clang14SourceLocation8isFileIDEv(ptr noundef nonnull align 4 dereferenceable(4) %0) #0 comdat align 2 {
  %2 = alloca ptr, align 8
  store ptr %0, ptr %2, align 8
  %3 = load ptr, ptr %2, align 8
  %4 = getelementptr inbounds nuw %"class.clang::SourceLocation", ptr %3, i32 0, i32 0
  %5 = load i32, ptr %4, align 4
  %6 = and i32 %5, -2147483648
  %7 = icmp eq i32 %6, 0
  ret i1 %7
}

; Function Attrs: mustprogress nounwind uwtable
define dso_local noundef i32 @_ZNK5clang8Rewriter26getLocationOffsetAndFileIDENS_14SourceLocationERNS_6FileIDE(ptr noundef nonnull align 8 dereferenceable(64) %0, i32 %1, ptr noundef nonnull align 4 dereferenceable(4) %2) #0 align 2 {
  %4 = alloca %"class.clang::SourceLocation", align 4
  %5 = alloca ptr, align 8
  %6 = alloca ptr, align 8
  %7 = alloca %"struct.std::pair.96", align 4
  %8 = alloca %"class.clang::SourceLocation", align 4
  %9 = getelementptr inbounds nuw %"class.clang::SourceLocation", ptr %4, i32 0, i32 0
  store i32 %1, ptr %9, align 4
  store ptr %0, ptr %5, align 8
  store ptr %2, ptr %6, align 8
  %10 = load ptr, ptr %5, align 8
  %11 = getelementptr inbounds nuw %"class.clang::Rewriter", ptr %10, i32 0, i32 0
  %12 = load ptr, ptr %11, align 8
  call void @llvm.memcpy.p0.p0.i64(ptr align 4 %8, ptr align 4 %4, i64 4, i1 false)
  %13 = getelementptr inbounds nuw %"class.clang::SourceLocation", ptr %8, i32 0, i32 0
  %14 = load i32, ptr %13, align 4
  %15 = call i64 @_ZNK5clang13SourceManager16getDecomposedLocENS_14SourceLocationE(ptr noundef nonnull align 8 dereferenceable(696) %12, i32 %14)
  store i64 %15, ptr %7, align 4
  %16 = getelementptr inbounds nuw %"struct.std::pair.96", ptr %7, i32 0, i32 0
  %17 = load ptr, ptr %6, align 8
  call void @llvm.memcpy.p0.p0.i64(ptr align 4 %17, ptr align 4 %16, i64 4, i1 false)
  %18 = getelementptr inbounds nuw %"struct.std::pair.96", ptr %7, i32 0, i32 1
  %19 = load i32, ptr %18, align 4
  ret i32 %19
}

; Function Attrs: mustprogress nounwind uwtable
define linkonce_odr hidden void @_ZN5clang6FileIDC2Ev(ptr noundef nonnull align 4 dereferenceable(4) %0) unnamed_addr #0 comdat align 2 {
  %2 = alloca ptr, align 8
  store ptr %0, ptr %2, align 8
  %3 = load ptr, ptr %2, align 8
  %4 = getelementptr inbounds nuw %"class.clang::FileID", ptr %3, i32 0, i32 0
  store i32 0, ptr %4, align 4
  ret void
}

; Function Attrs: mustprogress nounwind uwtable
define linkonce_odr hidden noundef zeroext i1 @_ZN5clang8Rewriter12isRewritableENS_14SourceLocationE(i32 %0) #0 comdat align 2 {
  %2 = alloca %"class.clang::SourceLocation", align 4
  %3 = getelementptr inbounds nuw %"class.clang::SourceLocation", ptr %2, i32 0, i32 0
  store i32 %0, ptr %3, align 4
  %4 = call noundef zeroext i1 @_ZNK5clang14SourceLocation8isFileIDEv(ptr noundef nonnull align 4 dereferenceable(4) %2)
  ret i1 %4
}

; Function Attrs: mustprogress nounwind uwtable
define dso_local noundef zeroext i1 @_ZN5clang8Rewriter10RemoveTextENS_14SourceLocationEjNS0_14RewriteOptionsE(ptr noundef nonnull align 8 dereferenceable(64) %0, i32 %1, i32 noundef %2, i24 %3) #0 align 2 {
  %5 = alloca i1, align 1
  %6 = alloca %"class.clang::SourceLocation", align 4
  %7 = alloca %"struct.clang::Rewriter::RewriteOptions", align 1
  %8 = alloca ptr, align 8
  %9 = alloca i32, align 4
  %10 = alloca %"class.clang::SourceLocation", align 4
  %11 = alloca %"class.clang::FileID", align 4
  %12 = alloca i32, align 4
  %13 = alloca %"class.clang::SourceLocation", align 4
  %14 = alloca %"class.clang::FileID", align 4
  %15 = getelementptr inbounds nuw %"class.clang::SourceLocation", ptr %6, i32 0, i32 0
  store i32 %1, ptr %15, align 4
  store i24 %3, ptr %7, align 1
  store ptr %0, ptr %8, align 8
  store i32 %2, ptr %9, align 4
  %16 = load ptr, ptr %8, align 8
  call void @llvm.memcpy.p0.p0.i64(ptr align 4 %10, ptr align 4 %6, i64 4, i1 false)
  %17 = getelementptr inbounds nuw %"class.clang::SourceLocation", ptr %10, i32 0, i32 0
  %18 = load i32, ptr %17, align 4
  %19 = call noundef zeroext i1 @_ZN5clang8Rewriter12isRewritableENS_14SourceLocationE(i32 %18)
  br i1 %19, label %21, label %20

20:                                               ; preds = %4
  store i1 true, ptr %5, align 1
  br label %33

21:                                               ; preds = %4
  call void @_ZN5clang6FileIDC2Ev(ptr noundef nonnull align 4 dereferenceable(4) %11) #10
  call void @llvm.memcpy.p0.p0.i64(ptr align 4 %13, ptr align 4 %6, i64 4, i1 false)
  %22 = getelementptr inbounds nuw %"class.clang::SourceLocation", ptr %13, i32 0, i32 0
  %23 = load i32, ptr %22, align 4
  %24 = call noundef i32 @_ZNK5clang8Rewriter26getLocationOffsetAndFileIDENS_14SourceLocationERNS_6FileIDE(ptr noundef nonnull align 8 dereferenceable(64) %16, i32 %23, ptr noundef nonnull align 4 dereferenceable(4) %11)
  store i32 %24, ptr %12, align 4
  call void @llvm.memcpy.p0.p0.i64(ptr align 4 %14, ptr align 4 %11, i64 4, i1 false)
  %25 = getelementptr inbounds nuw %"class.clang::FileID", ptr %14, i32 0, i32 0
  %26 = load i32, ptr %25, align 4
  %27 = call noundef nonnull align 8 dereferenceable(32) ptr @_ZN5clang8Rewriter13getEditBufferENS_6FileIDE(ptr noundef nonnull align 8 dereferenceable(64) %16, i32 %26)
  %28 = load i32, ptr %12, align 4
  %29 = load i32, ptr %9, align 4
  %30 = getelementptr inbounds nuw %"struct.clang::Rewriter::RewriteOptions", ptr %7, i32 0, i32 2
  %31 = load i8, ptr %30, align 1
  %32 = trunc i8 %31 to i1
  call void @_ZN4llvm13RewriteBuffer10RemoveTextEjjb(ptr noundef nonnull align 8 dereferenceable(32) %27, i32 noundef %28, i32 noundef %29, i1 noundef zeroext %32)
  store i1 false, ptr %5, align 1
  br label %33

33:                                               ; preds = %21, %20
  %34 = load i1, ptr %5, align 1
  ret i1 %34
}