; Function Attrs: mustprogress nounwind uwtable
define dso_local noundef zeroext i1 @_ZN5clang8Rewriter10RemoveTextENS_14SourceLocationEjNS0_14RewriteOptionsE(ptr noundef nonnull align 8 dereferenceable(64) %0, i32 %1, i32 noundef %2, i24 %3) local_unnamed_addr #0 align 2 {
  %5 = icmp slt i32 %1, 0
  br i1 %5, label %12, label %6

6:                                                ; preds = %4
  %7 = load ptr, ptr %0, align 8
  %8 = tail call i64 @_ZNK5clang13SourceManager16getDecomposedLocENS_14SourceLocationE(ptr noundef nonnull align 8 dereferenceable(696) %7, i32 %1)
  %.sroa.01.0.extract.trunc.i = trunc i64 %8 to i32
  %.sroa.2.0.extract.shift.i = lshr i64 %8, 32
  %.sroa.2.0.extract.trunc.i = trunc nuw i64 %.sroa.2.0.extract.shift.i to i32
  %9 = tail call noundef nonnull align 8 dereferenceable(32) ptr @_ZN5clang8Rewriter13getEditBufferENS_6FileIDE(ptr noundef nonnull align 8 dereferenceable(64) %0, i32 %.sroa.01.0.extract.trunc.i)
  %10 = and i24 %3, 65536
  %11 = icmp ne i24 %10, 0
  tail call void @_ZN4llvm13RewriteBuffer10RemoveTextEjjb(ptr noundef nonnull align 8 dereferenceable(32) %9, i32 noundef %.sroa.2.0.extract.trunc.i, i32 noundef %2, i1 noundef zeroext %11) #15
  br label %12

12:                                               ; preds = %4, %6
  ret i1 %5
}